target datalayout = "e-m:e-p270:32:32-p271:32:32-p272:64:64-i64:64-i128:128-f80:128-n8:16:32:64-S128"
target triple = "x86_64-pc-linux-gnu"

%"struct.faiss::AdditiveQuantizer" = type <{ %"struct.faiss::Quantizer", i64, %"class.std::vector", %"class.std::vector.0", %"class.std::vector", i64, i64, i64, i8, i8, i8, [5 x i8], %"struct.faiss::IndexFlat1D", %"class.std::vector.0", i64, i32, float, float, [4 x i8] }>
%"struct.faiss::Quantizer" = type { ptr, i64, i64 }
%"class.std::vector" = type { %"struct.std::_Vector_base" }
%"struct.std::_Vector_base" = type { %"struct.std::_Vector_base<unsigned long, std::allocator<unsigned long>>::_Vector_impl" }
%"struct.std::_Vector_base<unsigned long, std::allocator<unsigned long>>::_Vector_impl" = type { %"struct.std::_Vector_base<unsigned long, std::allocator<unsigned long>>::_Vector_impl_data" }
%"struct.std::_Vector_base<unsigned long, std::allocator<unsigned long>>::_Vector_impl_data" = type { ptr, ptr, ptr }
%"struct.faiss::IndexFlat1D" = type { %"struct.faiss::IndexFlatL2", i8, %"class.std::vector.10" }
%"struct.faiss::IndexFlatL2" = type { %"struct.faiss::IndexFlat", %"class.std::vector.0" }
%"struct.faiss::IndexFlat" = type { %"struct.faiss::IndexFlatCodes" }
%"struct.faiss::IndexFlatCodes" = type { %"struct.faiss::Index.base", i64, %"class.std::vector.5" }
%"struct.faiss::Index.base" = type <{ ptr, i32, [4 x i8], i64, i8, i8, [2 x i8], i32, float }>
%"class.std::vector.5" = type { %"struct.std::_Vector_base.6" }
%"struct.std::_Vector_base.6" = type { %"struct.std::_Vector_base<unsigned char, std::allocator<unsigned char>>::_Vector_impl" }
%"struct.std::_Vector_base<unsigned char, std::allocator<unsigned char>>::_Vector_impl" = type { %"struct.std::_Vector_base<unsigned char, std::allocator<unsigned char>>::_Vector_impl_data" }
%"struct.std::_Vector_base<unsigned char, std::allocator<unsigned char>>::_Vector_impl_data" = type { ptr, ptr, ptr }
%"class.std::vector.10" = type { %"struct.std::_Vector_base.11" }
%"struct.std::_Vector_base.11" = type { %"struct.std::_Vector_base<long, std::allocator<long>>::_Vector_impl" }
%"struct.std::_Vector_base<long, std::allocator<long>>::_Vector_impl" = type { %"struct.std::_Vector_base<long, std::allocator<long>>::_Vector_impl_data" }
%"struct.std::_Vector_base<long, std::allocator<long>>::_Vector_impl_data" = type { ptr, ptr, ptr }
%"class.std::vector.0" = type { %"struct.std::_Vector_base.1" }
%"struct.std::_Vector_base.1" = type { %"struct.std::_Vector_base<float, std::allocator<float>>::_Vector_impl" }
%"struct.std::_Vector_base<float, std::allocator<float>>::_Vector_impl" = type { %"struct.std::_Vector_base<float, std::allocator<float>>::_Vector_impl_data" }
%"struct.std::_Vector_base<float, std::allocator<float>>::_Vector_impl_data" = type { ptr, ptr, ptr }

; Function Attrs: mustprogress nounwind uwtable
define linkonce_odr noundef ptr @_ZNKSt6vectorIfSaIfEE11_M_data_ptrIfEEPT_S4_(ptr noundef nonnull align 8 dereferenceable(24) %0, ptr noundef %1) #1 comdat align 2 {
  %3 = alloca ptr, align 8
  %4 = alloca ptr, align 8
  store ptr %0, ptr %3, align 8
  store ptr %1, ptr %4, align 8
  %5 = load ptr, ptr %4, align 8
  ret ptr %5
}

; Function Attrs: mustprogress nounwind uwtable
define linkonce_odr noundef ptr @_ZNKSt6vectorIfSaIfEE4dataEv(ptr noundef nonnull align 8 dereferenceable(24) %0) #1 comdat align 2 {
  %2 = alloca ptr, align 8
  store ptr %0, ptr %2, align 8
  %3 = load ptr, ptr %2, align 8
  %4 = getelementptr inbounds %"struct.std::_Vector_base.1", ptr %3, i32 0, i32 0
  %5 = getelementptr inbounds %"struct.std::_Vector_base<float, std::allocator<float>>::_Vector_impl_data", ptr %4, i32 0, i32 0
  %6 = load ptr, ptr %5, align 8
  %7 = call noundef ptr @_ZNKSt6vectorIfSaIfEE11_M_data_ptrIfEEPT_S4_(ptr noundef nonnull align 8 dereferenceable(24) %3, ptr noundef %6) #13
  ret ptr %7
}

; Function Attrs: mustprogress nounwind uwtable
define linkonce_odr noundef nonnull align 8 dereferenceable(8) ptr @_ZNKSt6vectorImSaImEEixEm(ptr noundef nonnull align 8 dereferenceable(24) %0, i64 noundef %1) #1 comdat align 2 {
  %3 = alloca ptr, align 8
  %4 = alloca i64, align 8
  store ptr %0, ptr %3, align 8
  store i64 %1, ptr %4, align 8
  %5 = load ptr, ptr %3, align 8
  %6 = getelementptr inbounds %"struct.std::_Vector_base", ptr %5, i32 0, i32 0
  %7 = getelementptr inbounds %"struct.std::_Vector_base<unsigned long, std::allocator<unsigned long>>::_Vector_impl_data", ptr %6, i32 0, i32 0
  %8 = load ptr, ptr %7, align 8
  %9 = load i64, ptr %4, align 8
  %10 = getelementptr inbounds i64, ptr %8, i64 %9
  ret ptr %10
}

; Function Attrs: mustprogress uwtable
define void @_ZNK5faiss17AdditiveQuantizer12decode_64bitElPf(ptr noundef nonnull align 8 dereferenceable(308) %0, i64 noundef %1, ptr noundef %2) #0 align 2 {
  %4 = alloca ptr, align 8
  %5 = alloca i64, align 8
  %6 = alloca ptr, align 8
  %7 = alloca i32, align 4
  %8 = alloca i64, align 8
  %9 = alloca ptr, align 8
  store ptr %0, ptr %4, align 8
  store i64 %1, ptr %5, align 8
  store ptr %2, ptr %6, align 8
  %10 = load ptr, ptr %4, align 8
  store i32 0, ptr %7, align 4
  br label %11

11:                                               ; preds = %62, %3
  %12 = load i32, ptr %7, align 4
  %13 = sext i32 %12 to i64
  %14 = getelementptr inbounds %"struct.faiss::AdditiveQuantizer", ptr %10, i32 0, i32 1
  %15 = load i64, ptr %14, align 8
  %16 = icmp ult i64 %13, %15
  br i1 %16, label %17, label %65

17:                                               ; preds = %11
  %18 = load i64, ptr %5, align 8
  %19 = getelementptr inbounds %"struct.faiss::AdditiveQuantizer", ptr %10, i32 0, i32 2
  %20 = load i32, ptr %7, align 4
  %21 = sext i32 %20 to i64
  %22 = call noundef nonnull align 8 dereferenceable(8) ptr @_ZNKSt6vectorImSaImEEixEm(ptr noundef nonnull align 8 dereferenceable(24) %19, i64 noundef %21) #13
  %23 = load i64, ptr %22, align 8
  %24 = shl i64 1, %23
  %25 = sub i64 %24, 1
  %26 = and i64 %18, %25
  store i64 %26, ptr %8, align 8
  %27 = getelementptr inbounds %"struct.faiss::AdditiveQuantizer", ptr %10, i32 0, i32 2
  %28 = load i32, ptr %7, align 4
  %29 = sext i32 %28 to i64
  %30 = call noundef nonnull align 8 dereferenceable(8) ptr @_ZNKSt6vectorImSaImEEixEm(ptr noundef nonnull align 8 dereferenceable(24) %27, i64 noundef %29) #13
  %31 = load i64, ptr %30, align 8
  %32 = load i64, ptr %5, align 8
  %33 = ashr i64 %32, %31
  store i64 %33, ptr %5, align 8
  %34 = getelementptr inbounds %"struct.faiss::AdditiveQuantizer", ptr %10, i32 0, i32 3
  %35 = call noundef ptr @_ZNKSt6vectorIfSaIfEE4dataEv(ptr noundef nonnull align 8 dereferenceable(24) %34) #13
  %36 = getelementptr inbounds %"struct.faiss::Quantizer", ptr %10, i32 0, i32 1
  %37 = load i64, ptr %36, align 8
  %38 = getelementptr inbounds %"struct.faiss::AdditiveQuantizer", ptr %10, i32 0, i32 4
  %39 = load i32, ptr %7, align 4
  %40 = sext i32 %39 to i64
  %41 = call noundef nonnull align 8 dereferenceable(8) ptr @_ZNKSt6vectorImSaImEEixEm(ptr noundef nonnull align 8 dereferenceable(24) %38, i64 noundef %40) #13
  %42 = load i64, ptr %41, align 8
  %43 = load i64, ptr %8, align 8
  %44 = add i64 %42, %43
  %45 = mul i64 %37, %44
  %46 = getelementptr inbounds float, ptr %35, i64 %45
  store ptr %46, ptr %9, align 8
  %47 = load i32, ptr %7, align 4
  %48 = icmp eq i32 %47, 0
  br i1 %48, label %49, label %55

49:                                               ; preds = %17
  %50 = load ptr, ptr %6, align 8
  %51 = load ptr, ptr %9, align 8
  %52 = getelementptr inbounds %"struct.faiss::Quantizer", ptr %10, i32 0, i32 1
  %53 = load i64, ptr %52, align 8
  %54 = mul i64 4, %53
  call void @llvm.memcpy.p0.p0.i64(ptr align 4 %50, ptr align 4 %51, i64 %54, i1 false)
  br label %61

55:                                               ; preds = %17
  %56 = getelementptr inbounds %"struct.faiss::Quantizer", ptr %10, i32 0, i32 1
  %57 = load i64, ptr %56, align 8
  %58 = load ptr, ptr %6, align 8
  %59 = load ptr, ptr %9, align 8
  %60 = load ptr, ptr %6, align 8
  call void @_ZN5faiss8fvec_addEmPKfS1_Pf(i64 noundef %57, ptr noundef %58, ptr noundef %59, ptr noundef %60)
  br label %61

61:                                               ; preds = %55, %49
  br label %62

62:                                               ; preds = %61
  %63 = load i32, ptr %7, align 4
  %64 = add nsw i32 %63, 1
  store i32 %64, ptr %7, align 4
  br label %11, !llvm.loop !19

65:                                               ; preds = %11
  ret void
}