; Function Attrs: mustprogress uwtable
define void @_ZNK5faiss17AdditiveQuantizer12decode_64bitElPf(ptr nocapture noundef nonnull readonly align 8 dereferenceable(308) %0, i64 noundef %1, ptr noundef %2) local_unnamed_addr #0 align 2 {
  %4 = getelementptr inbounds i8, ptr %0, i64 24
  %5 = load i64, ptr %4, align 8
  %.not = icmp eq i64 %5, 0
  br i1 %.not, label %._crit_edge, label %.lr.ph

.lr.ph:                                           ; preds = %3
  %6 = getelementptr inbounds i8, ptr %0, i64 32
  %7 = getelementptr inbounds i8, ptr %0, i64 56
  %8 = getelementptr inbounds i8, ptr %0, i64 8
  %9 = getelementptr inbounds i8, ptr %0, i64 80
  br label %10

10:                                               ; preds = %.lr.ph, %29
  %indvars.iv = phi i64 [ 0, %.lr.ph ], [ %indvars.iv.next, %29 ]
  %.017 = phi i64 [ %1, %.lr.ph ], [ %16, %29 ]
  %11 = load ptr, ptr %6, align 8
  %12 = getelementptr inbounds i64, ptr %11, i64 %indvars.iv
  %13 = load i64, ptr %12, align 8
  %notmask = shl nsw i64 -1, %13
  %14 = xor i64 %notmask, -1
  %15 = and i64 %.017, %14
  %16 = ashr i64 %.017, %13
  %17 = load ptr, ptr %7, align 8
  %18 = load i64, ptr %8, align 8
  %19 = load ptr, ptr %9, align 8
  %20 = getelementptr inbounds i64, ptr %19, i64 %indvars.iv
  %21 = load i64, ptr %20, align 8
  %22 = add i64 %21, %15
  %23 = mul i64 %22, %18
  %24 = getelementptr inbounds float, ptr %17, i64 %23
  %25 = icmp eq i64 %indvars.iv, 0
  br i1 %25, label %26, label %28

26:                                               ; preds = %10
  %27 = shl i64 %18, 2
  tail call void @llvm.memcpy.p0.p0.i64(ptr align 4 %2, ptr align 4 %24, i64 %27, i1 false)
  br label %29

28:                                               ; preds = %10
  tail call void @_ZN5faiss8fvec_addEmPKfS1_Pf(i64 noundef %18, ptr noundef %2, ptr noundef %24, ptr noundef %2)
  br label %29

29:                                               ; preds = %26, %28
  %indvars.iv.next = add nuw nsw i64 %indvars.iv, 1
  %30 = load i64, ptr %4, align 8
  %31 = icmp ugt i64 %30, %indvars.iv.next
  br i1 %31, label %10, label %._crit_edge, !llvm.loop !22

._crit_edge:                                      ; preds = %29, %3
  ret void
}